; Function Attrs: nounwind uwtable
define dso_local range(i64 0, 2) i64 @gin_tsquery_consistent(ptr noundef readonly captures(none) %0) local_unnamed_addr #0 {
  %2 = alloca %struct.GinChkVal, align 8
  %3 = getelementptr inbounds nuw i8, ptr %0, i64 32
  %4 = load i64, ptr %3, align 8
  %5 = getelementptr inbounds nuw i8, ptr %0, i64 64
  %6 = load i64, ptr %5, align 8
  %7 = inttoptr i64 %6 to ptr
  %8 = getelementptr inbounds nuw i8, ptr %0, i64 96
  %9 = load i64, ptr %8, align 8
  %10 = getelementptr inbounds nuw i8, ptr %0, i64 112
  %11 = load i64, ptr %10, align 8
  %12 = inttoptr i64 %11 to ptr
  store i8 0, ptr %12, align 1
  %13 = getelementptr inbounds nuw i8, ptr %7, i64 4
  %14 = load i32, ptr %13, align 4
  %15 = icmp sgt i32 %14, 0
  br i1 %15, label %16, label %27

16:                                               ; preds = %1
  %17 = inttoptr i64 %9 to ptr
  %18 = inttoptr i64 %4 to ptr
  call void @llvm.lifetime.start.p0(i64 24, ptr nonnull %2) #6
  %19 = getelementptr inbounds nuw i8, ptr %7, i64 8
  store ptr %19, ptr %2, align 8
  %20 = getelementptr inbounds nuw i8, ptr %2, i64 8
  store ptr %18, ptr %20, align 8
  %21 = load ptr, ptr %17, align 8
  %22 = getelementptr inbounds nuw i8, ptr %2, i64 16
  store ptr %21, ptr %22, align 8
  %23 = call i32 @TS_execute_ternary(ptr noundef nonnull %19, ptr noundef nonnull %2, i32 noundef 2, ptr noundef nonnull @checkcondition_gin) #6
  switch i32 %23, label %26 [
    i32 2, label %25
    i32 1, label %24
  ]

24:                                               ; preds = %16
  br label %26

25:                                               ; preds = %16
  store i8 1, ptr %12, align 1
  br label %26

26:                                               ; preds = %25, %24, %16
  %.1 = phi i64 [ 1, %25 ], [ 1, %24 ], [ 0, %16 ]
  call void @llvm.lifetime.end.p0(i64 24, ptr nonnull %2) #6
  br label %27

27:                                               ; preds = %26, %1
  %.0 = phi i64 [ %.1, %26 ], [ 0, %1 ]
  ret i64 %.0
}